target datalayout = "e-m:e-p270:32:32-p271:32:32-p272:64:64-i64:64-i128:128-f80:128-n8:16:32:64-S128"
target triple = "x86_64-pc-linux-gnu"

%struct.H5S_t = type { %struct.H5S_extent_t, %struct.H5S_select_t }
%struct.H5S_extent_t = type { %struct.H5O_shared_t, i32, i32, i64, i32, ptr, ptr }
%struct.H5O_shared_t = type { i32, ptr, i32, %union.anon }
%union.anon = type { %struct.H5O_mesg_loc_t }
%struct.H5O_mesg_loc_t = type { i32, i64 }
%struct.H5S_select_t = type { ptr, i8, [32 x i64], i64, %union.anon.0 }
%union.anon.0 = type { ptr }

@H5S_init_g = external global i8, align 1
@H5_libterm_g = external global i8, align 1
@.str = private unnamed_addr constant [101 x i8] c"generated/home/dtcxzyw/WorkSpace/Projects/compilers/llvm-opt-benchmark/bench/hdf5/hdf5/src/H5Stest.c\00", align 1
@.str.1 = private unnamed_addr constant [16 x i8] c"not a dataspace\00", align 1
@H5E_DATASPACE_g = external global i64, align 8
@__func__.H5S__verify_offsets = private unnamed_addr constant [20 x i8] c"H5S__verify_offsets\00", align 1
@H5E_BADID_g = external global i64, align 8
@H5E_UNSUPPORTED_g = external global i64, align 8
@.str.3 = private unnamed_addr constant [45 x i8] c"can't set offset on scalar or null dataspace\00", align 1
@H5E_BADVALUE_g = external global i64, align 8
@.str.4 = private unnamed_addr constant [40 x i8] c"internal offsets don't match parameters\00", align 1

; Function Attrs: nounwind uwtable
define i32 @H5S__verify_offsets(i64 noundef %0, ptr noundef %1) #0 {
  %3 = alloca i64, align 8
  %4 = alloca ptr, align 8
  %5 = alloca ptr, align 8
  %6 = alloca i32, align 4
  %7 = alloca i8, align 1
  store i64 %0, ptr %3, align 8, !tbaa !3
  store ptr %1, ptr %4, align 8, !tbaa !36
  call void @llvm.lifetime.start.p0(i64 8, ptr %5) #5
  call void @llvm.lifetime.start.p0(i64 4, ptr %6) #5
  store i32 0, ptr %6, align 4, !tbaa !9
  call void @llvm.lifetime.start.p0(i64 1, ptr %7) #5
  store i8 0, ptr %7, align 1, !tbaa !11
  %8 = load i8, ptr @H5S_init_g, align 1, !tbaa !11, !range !13, !noundef !14
  %9 = trunc i8 %8 to i1
  br i1 %9, label %14, label %10

10:                                               ; preds = %2
  %11 = load i8, ptr @H5_libterm_g, align 1, !tbaa !11, !range !13, !noundef !14
  %12 = trunc i8 %11 to i1
  %13 = xor i1 %12, true
  br label %14

14:                                               ; preds = %10, %2
  %15 = phi i1 [ true, %2 ], [ %13, %10 ]
  %16 = xor i1 %15, true
  %17 = xor i1 %16, true
  %18 = zext i1 %17 to i32
  %19 = sext i32 %18 to i64
  %20 = call i64 @llvm.expect.i64(i64 %19, i64 1)
  %21 = icmp ne i64 %20, 0
  br i1 %21, label %22, label %117

22:                                               ; preds = %14
  %23 = load i64, ptr %3, align 8, !tbaa !3
  %24 = call ptr @H5I_object_verify(i64 noundef %23, i32 noundef 4)
  store ptr %24, ptr %5, align 8, !tbaa !15
  %25 = icmp eq ptr null, %24
  br i1 %25, label %26, label %45

26:                                               ; preds = %22
  br label %27

27:                                               ; preds = %26
  br label %28

28:                                               ; preds = %27
  br label %29

29:                                               ; preds = %28
  %30 = load i64, ptr @H5E_DATASPACE_g, align 8, !tbaa !3
  %31 = load i64, ptr @H5E_BADID_g, align 8, !tbaa !3
  %32 = call i32 (ptr, ptr, i32, i64, i64, ptr, ...) @H5E_printf_stack(ptr noundef @.str, ptr noundef @__func__.H5S__verify_offsets, i32 noundef 390, i64 noundef %30, i64 noundef %31, ptr noundef @.str.1)
  br label %33

33:                                               ; preds = %29
  br label %34

34:                                               ; preds = %33
  store i8 1, ptr %7, align 1, !tbaa !11
  %35 = load i8, ptr %7, align 1, !tbaa !11, !range !13, !noundef !14
  %36 = trunc i8 %35 to i1
  %37 = zext i1 %36 to i8
  store i8 %37, ptr %7, align 1, !tbaa !11
  br label %38

38:                                               ; preds = %34
  br label %39

39:                                               ; preds = %38
  br label %40

40:                                               ; preds = %39
  store i32 -1, ptr %6, align 4, !tbaa !9
  br label %116

41:                                               ; No predecessors!
  br label %42

42:                                               ; preds = %41
  br label %43

43:                                               ; preds = %42
  br label %44

44:                                               ; preds = %43
  br label %45

45:                                               ; preds = %44, %22
  %46 = load ptr, ptr %5, align 8, !tbaa !15
  %47 = getelementptr inbounds nuw %struct.H5S_t, ptr %46, i32 0, i32 0
  %48 = getelementptr inbounds nuw %struct.H5S_extent_t, ptr %47, i32 0, i32 4
  %49 = load i32, ptr %48, align 8, !tbaa !31
  %50 = icmp eq i32 %49, 0
  br i1 %50, label %63, label %51

51:                                               ; preds = %45
  %52 = load ptr, ptr %5, align 8, !tbaa !15
  %53 = getelementptr inbounds nuw %struct.H5S_t, ptr %52, i32 0, i32 0
  %54 = getelementptr inbounds nuw %struct.H5S_extent_t, ptr %53, i32 0, i32 1
  %55 = load i32, ptr %54, align 8, !tbaa !40
  %56 = icmp eq i32 %55, 0
  br i1 %56, label %63, label %57

57:                                               ; preds = %51
  %58 = load ptr, ptr %5, align 8, !tbaa !15
  %59 = getelementptr inbounds nuw %struct.H5S_t, ptr %58, i32 0, i32 0
  %60 = getelementptr inbounds nuw %struct.H5S_extent_t, ptr %59, i32 0, i32 1
  %61 = load i32, ptr %60, align 8, !tbaa !40
  %62 = icmp eq i32 %61, 2
  br i1 %62, label %63, label %82

63:                                               ; preds = %57, %51, %45
  br label %64

64:                                               ; preds = %63
  br label %65

65:                                               ; preds = %64
  br label %66

66:                                               ; preds = %65
  %67 = load i64, ptr @H5E_DATASPACE_g, align 8, !tbaa !3
  %68 = load i64, ptr @H5E_UNSUPPORTED_g, align 8, !tbaa !3
  %69 = call i32 (ptr, ptr, i32, i64, i64, ptr, ...) @H5E_printf_stack(ptr noundef @.str, ptr noundef @__func__.H5S__verify_offsets, i32 noundef 393, i64 noundef %67, i64 noundef %68, ptr noundef @.str.3)
  br label %70

70:                                               ; preds = %66
  br label %71

71:                                               ; preds = %70
  store i8 1, ptr %7, align 1, !tbaa !11
  %72 = load i8, ptr %7, align 1, !tbaa !11, !range !13, !noundef !14
  %73 = trunc i8 %72 to i1
  %74 = zext i1 %73 to i8
  store i8 %74, ptr %7, align 1, !tbaa !11
  br label %75

75:                                               ; preds = %71
  br label %76

76:                                               ; preds = %75
  br label %77

77:                                               ; preds = %76
  store i32 -1, ptr %6, align 4, !tbaa !9
  br label %116

78:                                               ; No predecessors!
  br label %79

79:                                               ; preds = %78
  br label %80

80:                                               ; preds = %79
  br label %81

81:                                               ; preds = %80
  br label %82

82:                                               ; preds = %81, %57
  %83 = load ptr, ptr %5, align 8, !tbaa !15
  %84 = getelementptr inbounds nuw %struct.H5S_t, ptr %83, i32 0, i32 1
  %85 = getelementptr inbounds nuw %struct.H5S_select_t, ptr %84, i32 0, i32 2
  %86 = getelementptr inbounds [32 x i64], ptr %85, i64 0, i64 0
  %87 = load ptr, ptr %4, align 8, !tbaa !36
  %88 = load ptr, ptr %5, align 8, !tbaa !15
  %89 = getelementptr inbounds nuw %struct.H5S_t, ptr %88, i32 0, i32 0
  %90 = getelementptr inbounds nuw %struct.H5S_extent_t, ptr %89, i32 0, i32 4
  %91 = load i32, ptr %90, align 8, !tbaa !31
  %92 = zext i32 %91 to i64
  %93 = mul i64 8, %92
  %94 = call i32 @memcmp(ptr noundef %86, ptr noundef %87, i64 noundef %93) #6
  %95 = icmp ne i32 0, %94
  br i1 %95, label %96, label %115

96:                                               ; preds = %82
  br label %97

97:                                               ; preds = %96
  br label %98

98:                                               ; preds = %97
  br label %99

99:                                               ; preds = %98
  %100 = load i64, ptr @H5E_DATASPACE_g, align 8, !tbaa !3
  %101 = load i64, ptr @H5E_BADVALUE_g, align 8, !tbaa !3
  %102 = call i32 (ptr, ptr, i32, i64, i64, ptr, ...) @H5E_printf_stack(ptr noundef @.str, ptr noundef @__func__.H5S__verify_offsets, i32 noundef 397, i64 noundef %100, i64 noundef %101, ptr noundef @.str.4)
  br label %103

103:                                              ; preds = %99
  br label %104

104:                                              ; preds = %103
  store i8 1, ptr %7, align 1, !tbaa !11
  %105 = load i8, ptr %7, align 1, !tbaa !11, !range !13, !noundef !14
  %106 = trunc i8 %105 to i1
  %107 = zext i1 %106 to i8
  store i8 %107, ptr %7, align 1, !tbaa !11
  br label %108

108:                                              ; preds = %104
  br label %109

109:                                              ; preds = %108
  br label %110

110:                                              ; preds = %109
  store i32 -1, ptr %6, align 4, !tbaa !9
  br label %116

111:                                              ; No predecessors!
  br label %112

112:                                              ; preds = %111
  br label %113

113:                                              ; preds = %112
  br label %114

114:                                              ; preds = %113
  br label %115

115:                                              ; preds = %114, %82
  br label %116

116:                                              ; preds = %115, %110, %77, %40
  br label %117

117:                                              ; preds = %116, %14
  %118 = load i32, ptr %6, align 4, !tbaa !9
  call void @llvm.lifetime.end.p0(i64 1, ptr %7) #5
  call void @llvm.lifetime.end.p0(i64 4, ptr %6) #5
  call void @llvm.lifetime.end.p0(i64 8, ptr %5) #5
  ret i32 %118
}