; Function Attrs: nounwind uwtable
define range(i32 -1, 1) i32 @H5S__verify_offsets(i64 noundef %0, ptr noundef readonly captures(none) %1) local_unnamed_addr #0 {
  %3 = load i8, ptr @H5S_init_g, align 1, !tbaa !3, !range !7, !noundef !8
  %4 = trunc nuw i8 %3 to i1
  %5 = load i8, ptr @H5_libterm_g, align 1, !range !7
  %6 = trunc nuw i8 %5 to i1
  %7 = xor i1 %6, true
  %8 = select i1 %4, i1 true, i1 %7
  br i1 %8, label %9, label %35, !prof !9

9:                                                ; preds = %2
  %10 = tail call ptr @H5I_object_verify(i64 noundef %0, i32 noundef 4) #5
  %11 = icmp eq ptr %10, null
  br i1 %11, label %12, label %16

12:                                               ; preds = %9
  %13 = load i64, ptr @H5E_DATASPACE_g, align 8, !tbaa !10
  %14 = load i64, ptr @H5E_BADID_g, align 8, !tbaa !10
  %15 = tail call i32 (ptr, ptr, i32, i64, i64, ptr, ...) @H5E_printf_stack(ptr noundef nonnull @.str, ptr noundef nonnull @__func__.H5S__verify_offsets, i32 noundef 390, i64 noundef %13, i64 noundef %14, ptr noundef nonnull @.str.1) #5
  br label %35

16:                                               ; preds = %9
  %17 = getelementptr inbounds nuw i8, ptr %10, i64 56
  %18 = load i32, ptr %17, align 8, !tbaa !29
  %19 = icmp eq i32 %18, 0
  br i1 %19, label %23, label %20

20:                                               ; preds = %16
  %21 = getelementptr inbounds nuw i8, ptr %10, i64 40
  %22 = load i32, ptr %21, align 8, !tbaa !40
  switch i32 %22, label %27 [
    i32 0, label %23
    i32 2, label %23
  ]

23:                                               ; preds = %20, %20, %16
  %24 = load i64, ptr @H5E_DATASPACE_g, align 8, !tbaa !10
  %25 = load i64, ptr @H5E_UNSUPPORTED_g, align 8, !tbaa !10
  %26 = tail call i32 (ptr, ptr, i32, i64, i64, ptr, ...) @H5E_printf_stack(ptr noundef nonnull @.str, ptr noundef nonnull @__func__.H5S__verify_offsets, i32 noundef 393, i64 noundef %24, i64 noundef %25, ptr noundef nonnull @.str.3) #5
  br label %35

27:                                               ; preds = %20
  %28 = getelementptr inbounds nuw i8, ptr %10, i64 96
  %29 = zext i32 %18 to i64
  %30 = shl nuw nsw i64 %29, 3
  %bcmp = tail call i32 @bcmp(ptr nonnull %28, ptr %1, i64 %30)
  %.not = icmp eq i32 %bcmp, 0
  br i1 %.not, label %35, label %31

31:                                               ; preds = %27
  %32 = load i64, ptr @H5E_DATASPACE_g, align 8, !tbaa !10
  %33 = load i64, ptr @H5E_BADVALUE_g, align 8, !tbaa !10
  %34 = tail call i32 (ptr, ptr, i32, i64, i64, ptr, ...) @H5E_printf_stack(ptr noundef nonnull @.str, ptr noundef nonnull @__func__.H5S__verify_offsets, i32 noundef 397, i64 noundef %32, i64 noundef %33, ptr noundef nonnull @.str.4) #5
  br label %35

35:                                               ; preds = %12, %23, %31, %27, %2
  %.0 = phi i32 [ -1, %12 ], [ -1, %23 ], [ -1, %31 ], [ 0, %27 ], [ 0, %2 ]
  ret i32 %.0
}